target datalayout = "e-m:e-p270:32:32-p271:32:32-p272:64:64-i64:64-i128:128-f80:128-n8:16:32:64-S128"
target triple = "x86_64-pc-linux-gnu"

%struct.AVDCT = type { ptr, ptr, [64 x i8], ptr, i32, i32, ptr, i32, ptr }

@avdct_class = internal constant { ptr, ptr, ptr, i32, i32, i32, i32, ptr, ptr, ptr, ptr, i32, [4 x i8] } { ptr @.str, ptr null, ptr @avdct_options, i32 3932772, i32 0, i32 0, i32 0, ptr null, ptr null, ptr null, ptr null, i32 0, [4 x i8] zeroinitializer }, align 8

; Function Attrs: nounwind uwtable
define ptr @avcodec_dct_alloc() #0 {
  %1 = alloca ptr, align 8
  %2 = alloca ptr, align 8
  %3 = alloca i32, align 4
  call void @llvm.lifetime.start.p0(i64 8, ptr %2) #5
  %4 = call noalias ptr @av_mallocz(i64 noundef 120)
  store ptr %4, ptr %2, align 8, !tbaa !4
  %5 = load ptr, ptr %2, align 8, !tbaa !4
  %6 = icmp ne ptr %5, null
  br i1 %6, label %8, label %7

7:                                                ; preds = %0
  store ptr null, ptr %1, align 8
  store i32 1, ptr %3, align 4
  br label %13

8:                                                ; preds = %0
  %9 = load ptr, ptr %2, align 8, !tbaa !4
  %10 = getelementptr inbounds nuw %struct.AVDCT, ptr %9, i32 0, i32 0
  store ptr @avdct_class, ptr %10, align 8, !tbaa !9
  %11 = load ptr, ptr %2, align 8, !tbaa !4
  call void @av_opt_set_defaults(ptr noundef %11)
  %12 = load ptr, ptr %2, align 8, !tbaa !4
  store ptr %12, ptr %1, align 8
  store i32 1, ptr %3, align 4
  br label %13

13:                                               ; preds = %8, %7
  call void @llvm.lifetime.end.p0(i64 8, ptr %2) #5
  %14 = load ptr, ptr %1, align 8
  ret ptr %14
}