; Function Attrs: nounwind uwtable
define ptr @avcodec_dct_alloc() local_unnamed_addr #1 {
  %1 = tail call noalias ptr @av_mallocz(i64 noundef 120) #6
  %.not = icmp eq ptr %1, null
  br i1 %.not, label %3, label %2

2:                                                ; preds = %0
  store ptr @avdct_class, ptr %1, align 8, !tbaa !4
  tail call void @av_opt_set_defaults(ptr noundef nonnull %1) #6
  br label %3

3:                                                ; preds = %0, %2
  ret ptr %1
}